target datalayout = "e-m:e-p270:32:32-p271:32:32-p272:64:64-i64:64-i128:128-f80:128-n8:16:32:64-S128"
target triple = "x86_64-pc-linux-gnu"

; Function Attrs: mustprogress uwtable
define void @_ZN6icu_7716JapaneseCalendarC2ERKS0_(ptr noundef nonnull align 8 dereferenceable(222) %0, ptr noundef nonnull align 8 dereferenceable(222) %1) unnamed_addr #1 align 2 personality ptr @__gxx_personality_v0 {
  %3 = alloca ptr, align 8
  %4 = alloca ptr, align 8
  %5 = alloca i32, align 4
  %6 = alloca ptr, align 8
  %7 = alloca i32, align 4
  store ptr %0, ptr %3, align 8, !tbaa !3
  store ptr %1, ptr %4, align 8, !tbaa !3
  %8 = load ptr, ptr %3, align 8
  %9 = load ptr, ptr %4, align 8, !tbaa !3
  call void @_ZN6icu_7717GregorianCalendarC2ERKS0_(ptr noundef nonnull align 8 dereferenceable(222) %8, ptr noundef nonnull align 8 dereferenceable(222) %9)
  store ptr getelementptr inbounds inrange(-16, 480) ({ [62 x ptr] }, ptr @_ZTVN6icu_7716JapaneseCalendarE, i32 0, i32 0, i32 2), ptr %8, align 8, !tbaa !16
  call void @llvm.lifetime.start.p0(i64 4, ptr %5) #10
  store i32 0, ptr %5, align 4, !tbaa !18
  invoke void @_ZN6icu_77L4initER10UErrorCode(ptr noundef nonnull align 4 dereferenceable(4) %5)
          to label %10 unwind label %11

10:                                               ; preds = %2
  call void @llvm.lifetime.end.p0(i64 4, ptr %5) #10
  ret void

11:                                               ; preds = %2
  %12 = landingpad { ptr, i32 }
          cleanup
  %13 = extractvalue { ptr, i32 } %12, 0
  store ptr %13, ptr %6, align 8
  %14 = extractvalue { ptr, i32 } %12, 1
  store i32 %14, ptr %7, align 4
  call void @llvm.lifetime.end.p0(i64 4, ptr %5) #10
  call void @_ZN6icu_7717GregorianCalendarD2Ev(ptr noundef nonnull align 8 dereferenceable(222) %8) #10
  br label %15

15:                                               ; preds = %11
  %16 = load ptr, ptr %6, align 8
  %17 = load i32, ptr %7, align 4
  %18 = insertvalue { ptr, i32 } poison, ptr %16, 0
  %19 = insertvalue { ptr, i32 } %18, i32 %17, 1
  resume { ptr, i32 } %19
}