; Function Attrs: mustprogress uwtable
define void @_ZN6icu_7716JapaneseCalendarC2ERKS0_(ptr noundef nonnull align 8 dereferenceable(222) %0, ptr noundef nonnull align 8 dereferenceable(222) %1) unnamed_addr #1 align 2 personality ptr @__gxx_personality_v0 {
  %3 = alloca i32, align 4
  tail call void @_ZN6icu_7717GregorianCalendarC2ERKS0_(ptr noundef nonnull align 8 dereferenceable(222) %0, ptr noundef nonnull align 8 dereferenceable(222) %1)
  store ptr getelementptr inbounds nuw inrange(-16, 480) (i8, ptr @_ZTVN6icu_7716JapaneseCalendarE, i64 16), ptr %0, align 8, !tbaa !7
  call void @llvm.lifetime.start.p0(i64 4, ptr nonnull %3) #10
  store i32 0, ptr %3, align 4, !tbaa !9
  invoke fastcc void @_ZN6icu_77L4initER10UErrorCode(ptr noundef nonnull align 4 dereferenceable(4) %3)
          to label %4 unwind label %5

4:                                                ; preds = %2
  call void @llvm.lifetime.end.p0(i64 4, ptr nonnull %3) #10
  ret void

5:                                                ; preds = %2
  %6 = landingpad { ptr, i32 }
          cleanup
  call void @llvm.lifetime.end.p0(i64 4, ptr nonnull %3) #10
  call void @_ZN6icu_7717GregorianCalendarD2Ev(ptr noundef nonnull align 8 dereferenceable(222) %0) #10
  resume { ptr, i32 } %6
}